target datalayout = "e-m:e-p270:32:32-p271:32:32-p272:64:64-i64:64-i128:128-f80:128-n8:16:32:64-S128"
target triple = "x86_64-unknown-linux-gnu"

%class.contains_vars = type { ptr }

@_ZN13contains_varsC1Ev = hidden unnamed_addr alias void (ptr), ptr @_ZN13contains_varsC2Ev
@_ZN13contains_varsD1Ev = hidden unnamed_addr alias void (ptr), ptr @_ZN13contains_varsD2Ev

; Function Attrs: mustprogress uwtable
define hidden noundef zeroext i1 @_ZN13contains_varsclEP4expr(ptr noundef nonnull align 8 dereferenceable(8) %this, ptr noundef %e) #4 align 2 {
entry:
  %this.addr = alloca ptr, align 8
  %e.addr = alloca ptr, align 8
  store ptr %this, ptr %this.addr, align 8
  store ptr %e, ptr %e.addr, align 8
  %this1 = load ptr, ptr %this.addr, align 8
  %m_imp = getelementptr inbounds %class.contains_vars, ptr %this1, i32 0, i32 0
  %0 = load ptr, ptr %m_imp, align 8
  %1 = load ptr, ptr %e.addr, align 8
  %call = call noundef zeroext i1 @_ZN13contains_vars3impclEP4exprjj(ptr noundef nonnull align 8 dereferenceable(40) %0, ptr noundef %1, i32 noundef 0, i32 noundef -1)
  ret i1 %call
}

; Function Attrs: mustprogress uwtable
define hidden noundef zeroext i1 @_Z13has_free_varsP4expr(ptr noundef %n) #4 personality ptr @__gxx_personality_v0 {
entry:
  %n.addr = alloca ptr, align 8
  %p = alloca %class.contains_vars, align 8
  %exn.slot = alloca ptr, align 8
  %ehselector.slot = alloca i32, align 4
  store ptr %n, ptr %n.addr, align 8
  call void @_ZN13contains_varsC1Ev(ptr noundef nonnull align 8 dereferenceable(8) %p)
  %0 = load ptr, ptr %n.addr, align 8
  %call = invoke noundef zeroext i1 @_ZN13contains_varsclEP4expr(ptr noundef nonnull align 8 dereferenceable(8) %p, ptr noundef %0)
          to label %invoke.cont unwind label %lpad

invoke.cont:                                      ; preds = %entry
  call void @_ZN13contains_varsD1Ev(ptr noundef nonnull align 8 dereferenceable(8) %p) #3
  ret i1 %call

lpad:                                             ; preds = %entry
  %1 = landingpad { ptr, i32 }
          cleanup
  %2 = extractvalue { ptr, i32 } %1, 0
  store ptr %2, ptr %exn.slot, align 8
  %3 = extractvalue { ptr, i32 } %1, 1
  store i32 %3, ptr %ehselector.slot, align 4
  call void @_ZN13contains_varsD1Ev(ptr noundef nonnull align 8 dereferenceable(8) %p) #3
  br label %eh.resume

eh.resume:                                        ; preds = %lpad
  %exn = load ptr, ptr %exn.slot, align 8
  %sel = load i32, ptr %ehselector.slot, align 4
  %lpad.val = insertvalue { ptr, i32 } poison, ptr %exn, 0
  %lpad.val1 = insertvalue { ptr, i32 } %lpad.val, i32 %sel, 1
  resume { ptr, i32 } %lpad.val1
}