; Function Attrs: mustprogress uwtable
define hidden noundef zeroext i1 @_Z13has_free_varsP4expr(ptr noundef %n) local_unnamed_addr #3 personality ptr @__gxx_personality_v0 {
entry:
  %p = alloca %class.contains_vars, align 8
  %call.i = tail call noalias noundef ptr @_ZN6memory8allocateEm(i64 noundef 40)
  tail call void @llvm.memset.p0.i64(ptr noundef nonnull align 8 dereferenceable(40) %call.i, i8 0, i64 40, i1 false)
  %call.i.i.i.i.i.i = tail call noalias noundef ptr @_ZN6memory8allocateEm(i64 noundef 192)
  tail call void @llvm.memset.p0.i64(ptr noundef nonnull align 8 dereferenceable(192) %call.i.i.i.i.i.i, i8 0, i64 192, i1 false)
  store ptr %call.i.i.i.i.i.i, ptr %call.i, align 8
  %m_capacity.i.i.i.i = getelementptr inbounds i8, ptr %call.i, i64 8
  store i32 8, ptr %m_capacity.i.i.i.i, align 8
  %m_size.i.i.i.i = getelementptr inbounds i8, ptr %call.i, i64 12
  store i32 0, ptr %m_size.i.i.i.i, align 4
  %m_num_deleted.i.i.i.i = getelementptr inbounds i8, ptr %call.i, i64 16
  store i32 0, ptr %m_num_deleted.i.i.i.i, align 8
  %m_todo.i.i = getelementptr inbounds i8, ptr %call.i, i64 24
  store ptr null, ptr %m_todo.i.i, align 8
  store ptr %call.i, ptr %p, align 8
  %call.i12 = invoke noundef zeroext i1 @_ZN13contains_vars3impclEP4exprjj(ptr noundef nonnull align 8 dereferenceable(40) %call.i, ptr noundef %n, i32 noundef 0, i32 noundef -1)
          to label %if.end.i.i unwind label %lpad

if.end.i.i:                                       ; preds = %entry
  %0 = load ptr, ptr %m_todo.i.i, align 8
  %tobool.not.i.i.i.i.i.i = icmp eq ptr %0, null
  br i1 %tobool.not.i.i.i.i.i.i, label %_ZN7svectorI15expr_delta_pairjED2Ev.exit.i.i.i, label %if.then.i.i.i.i.i.i

if.then.i.i.i.i.i.i:                              ; preds = %if.end.i.i
  %add.ptr.i.i.i.i.i.i.i = getelementptr inbounds i8, ptr %0, i64 -8
  invoke void @_ZN6memory10deallocateEPv(ptr noundef nonnull %add.ptr.i.i.i.i.i.i.i)
          to label %_ZN7svectorI15expr_delta_pairjED2Ev.exit.i.i.i unwind label %terminate.lpad.i.i.i.i.i

terminate.lpad.i.i.i.i.i:                         ; preds = %if.then.i.i.i.i.i.i
  %1 = landingpad { ptr, i32 }
          catch ptr null
  %2 = extractvalue { ptr, i32 } %1, 0
  tail call void @__clang_call_terminate(ptr %2) #14
  unreachable

_ZN7svectorI15expr_delta_pairjED2Ev.exit.i.i.i:   ; preds = %if.then.i.i.i.i.i.i, %if.end.i.i
  %3 = load ptr, ptr %call.i, align 8
  %cmp.i.i.i.i.i.i.i = icmp eq ptr %3, null
  br i1 %cmp.i.i.i.i.i.i.i, label %_ZN13contains_vars3impD2Ev.exit.i.i, label %for.cond.preheader.i.i.i.i.i.i.i

for.cond.preheader.i.i.i.i.i.i.i:                 ; preds = %_ZN7svectorI15expr_delta_pairjED2Ev.exit.i.i.i
  invoke void @_ZN6memory10deallocateEPv(ptr noundef nonnull %3)
          to label %_ZN13contains_vars3impD2Ev.exit.i.i unwind label %terminate.lpad.i.i1.i.i.i

terminate.lpad.i.i1.i.i.i:                        ; preds = %for.cond.preheader.i.i.i.i.i.i.i
  %4 = landingpad { ptr, i32 }
          catch ptr null
  %5 = extractvalue { ptr, i32 } %4, 0
  tail call void @__clang_call_terminate(ptr %5) #14
  unreachable

_ZN13contains_vars3impD2Ev.exit.i.i:              ; preds = %for.cond.preheader.i.i.i.i.i.i.i, %_ZN7svectorI15expr_delta_pairjED2Ev.exit.i.i.i
  store ptr null, ptr %call.i, align 8
  invoke void @_ZN6memory10deallocateEPv(ptr noundef nonnull %call.i)
          to label %_ZN13contains_varsD2Ev.exit unwind label %terminate.lpad.i

terminate.lpad.i:                                 ; preds = %_ZN13contains_vars3impD2Ev.exit.i.i
  %6 = landingpad { ptr, i32 }
          catch ptr null
  %7 = extractvalue { ptr, i32 } %6, 0
  tail call void @__clang_call_terminate(ptr %7) #14
  unreachable

_ZN13contains_varsD2Ev.exit:                      ; preds = %_ZN13contains_vars3impD2Ev.exit.i.i
  ret i1 %call.i12

lpad:                                             ; preds = %entry
  %8 = landingpad { ptr, i32 }
          cleanup
  call void @_ZN13contains_varsD2Ev(ptr noundef nonnull align 8 dereferenceable(8) %p) #15
  resume { ptr, i32 } %8
}